target datalayout = "e-m:e-p270:32:32-p271:32:32-p272:64:64-i64:64-i128:128-f80:128-n8:16:32:64-S128"
target triple = "x86_64-pc-linux-gnu"

@.str = private unnamed_addr constant [5 x i8] c"IDAS\00", align 1
@.str.1 = private unnamed_addr constant [10 x i8] c"IDACalcIC\00", align 1
@.str.8 = private unnamed_addr constant [45 x i8] c"The residual function failed unrecoverably. \00", align 1
@.str.9 = private unnamed_addr constant [49 x i8] c"The residual function failed at the first call. \00", align 1
@.str.10 = private unnamed_addr constant [46 x i8] c"The linear solver setup failed unrecoverably.\00", align 1
@.str.11 = private unnamed_addr constant [46 x i8] c"The linear solver solve failed unrecoverably.\00", align 1
@.str.12 = private unnamed_addr constant [120 x i8] c"The residual routine or the linear setup or solve routine had a recoverable error, but IDACalcIC was unable to recover.\00", align 1
@.str.13 = private unnamed_addr constant [46 x i8] c"Unable to satisfy the inequality constraints.\00", align 1
@.str.14 = private unnamed_addr constant [55 x i8] c"The linesearch algorithm failed with too small a step.\00", align 1
@.str.15 = private unnamed_addr constant [48 x i8] c"Newton/Linesearch algorithm failed to converge.\00", align 1
@.str.16 = private unnamed_addr constant [42 x i8] c"Some initial ewt component = 0.0 illegal.\00", align 1

; Function Attrs: nounwind uwtable
define internal i32 @IDAICFailFlag(ptr noundef %0, i32 noundef %1) #0 {
  %3 = alloca i32, align 4
  %4 = alloca ptr, align 8
  %5 = alloca i32, align 4
  store ptr %0, ptr %4, align 8, !tbaa !11
  store i32 %1, ptr %5, align 4, !tbaa !7
  %6 = load i32, ptr %5, align 4, !tbaa !7
  switch i32 %6, label %27 [
    i32 -8, label %7
    i32 -12, label %9
    i32 -6, label %11
    i32 -7, label %13
    i32 1, label %15
    i32 2, label %17
    i32 3, label %19
    i32 4, label %21
    i32 5, label %23
    i32 -24, label %25
  ]

7:                                                ; preds = %2
  %8 = load ptr, ptr %4, align 8, !tbaa !11
  call void (ptr, i32, ptr, ptr, ptr, ...) @IDAProcessError(ptr noundef %8, i32 noundef -8, ptr noundef @.str, ptr noundef @.str.1, ptr noundef @.str.8)
  store i32 -8, ptr %3, align 4
  br label %28

9:                                                ; preds = %2
  %10 = load ptr, ptr %4, align 8, !tbaa !11
  call void (ptr, i32, ptr, ptr, ptr, ...) @IDAProcessError(ptr noundef %10, i32 noundef -12, ptr noundef @.str, ptr noundef @.str.1, ptr noundef @.str.9)
  store i32 -12, ptr %3, align 4
  br label %28

11:                                               ; preds = %2
  %12 = load ptr, ptr %4, align 8, !tbaa !11
  call void (ptr, i32, ptr, ptr, ptr, ...) @IDAProcessError(ptr noundef %12, i32 noundef -6, ptr noundef @.str, ptr noundef @.str.1, ptr noundef @.str.10)
  store i32 -6, ptr %3, align 4
  br label %28

13:                                               ; preds = %2
  %14 = load ptr, ptr %4, align 8, !tbaa !11
  call void (ptr, i32, ptr, ptr, ptr, ...) @IDAProcessError(ptr noundef %14, i32 noundef -7, ptr noundef @.str, ptr noundef @.str.1, ptr noundef @.str.11)
  store i32 -7, ptr %3, align 4
  br label %28

15:                                               ; preds = %2
  %16 = load ptr, ptr %4, align 8, !tbaa !11
  call void (ptr, i32, ptr, ptr, ptr, ...) @IDAProcessError(ptr noundef %16, i32 noundef -14, ptr noundef @.str, ptr noundef @.str.1, ptr noundef @.str.12)
  store i32 -14, ptr %3, align 4
  br label %28

17:                                               ; preds = %2
  %18 = load ptr, ptr %4, align 8, !tbaa !11
  call void (ptr, i32, ptr, ptr, ptr, ...) @IDAProcessError(ptr noundef %18, i32 noundef -11, ptr noundef @.str, ptr noundef @.str.1, ptr noundef @.str.13)
  store i32 -11, ptr %3, align 4
  br label %28

19:                                               ; preds = %2
  %20 = load ptr, ptr %4, align 8, !tbaa !11
  call void (ptr, i32, ptr, ptr, ptr, ...) @IDAProcessError(ptr noundef %20, i32 noundef -13, ptr noundef @.str, ptr noundef @.str.1, ptr noundef @.str.14)
  store i32 -13, ptr %3, align 4
  br label %28

21:                                               ; preds = %2
  %22 = load ptr, ptr %4, align 8, !tbaa !11
  call void (ptr, i32, ptr, ptr, ptr, ...) @IDAProcessError(ptr noundef %22, i32 noundef -4, ptr noundef @.str, ptr noundef @.str.1, ptr noundef @.str.15)
  store i32 -4, ptr %3, align 4
  br label %28

23:                                               ; preds = %2
  %24 = load ptr, ptr %4, align 8, !tbaa !11
  call void (ptr, i32, ptr, ptr, ptr, ...) @IDAProcessError(ptr noundef %24, i32 noundef -4, ptr noundef @.str, ptr noundef @.str.1, ptr noundef @.str.15)
  store i32 -4, ptr %3, align 4
  br label %28

25:                                               ; preds = %2
  %26 = load ptr, ptr %4, align 8, !tbaa !11
  call void (ptr, i32, ptr, ptr, ptr, ...) @IDAProcessError(ptr noundef %26, i32 noundef -24, ptr noundef @.str, ptr noundef @.str.1, ptr noundef @.str.16)
  store i32 -24, ptr %3, align 4
  br label %28

27:                                               ; preds = %2
  store i32 -99, ptr %3, align 4
  br label %28

28:                                               ; preds = %27, %25, %23, %21, %19, %17, %15, %13, %11, %9, %7
  %29 = load i32, ptr %3, align 4
  ret i32 %29
}